; Function Attrs: mustprogress uwtable
define internal void @"_ZNSt17_Function_handlerIFvRNSt7__cxx1112basic_stringIcSt11char_traitsIcESaIcEEEEZN13cmSystemTools7EnvDiff14ParseOperationERKS5_E3$_0E9_M_invokeERKSt9_Any_dataS6_"(ptr noundef nonnull readonly align 8 captures(none) dereferenceable(16) %0, ptr noundef nonnull align 8 dereferenceable(32) %1) #3 align 2 {
  %.val = load ptr, ptr %0, align 8, !tbaa !940
  %3 = getelementptr inbounds nuw i8, ptr %.val, i64 8
  %4 = load i64, ptr %3, align 8, !tbaa !25
  %5 = getelementptr inbounds nuw i8, ptr %1, i64 8
  %6 = load i64, ptr %5, align 8, !tbaa !25
  %7 = sub i64 4611686018427387903, %6
  %8 = icmp ult i64 %7, %4
  br i1 %8, label %9, label %"_ZSt10__invoke_rIvRZN13cmSystemTools7EnvDiff14ParseOperationERKNSt7__cxx1112basic_stringIcSt11char_traitsIcESaIcEEEE3$_0JRS7_EENSt9enable_ifIX16is_invocable_r_vIT_T0_DpT1_EESE_E4typeEOSF_DpOSG_.exit"

9:                                                ; preds = %2
  tail call void @_ZSt20__throw_length_errorPKc(ptr noundef nonnull @.str.151) #40
  unreachable

"_ZSt10__invoke_rIvRZN13cmSystemTools7EnvDiff14ParseOperationERKNSt7__cxx1112basic_stringIcSt11char_traitsIcESaIcEEEE3$_0JRS7_EENSt9enable_ifIX16is_invocable_r_vIT_T0_DpT1_EESE_E4typeEOSF_DpOSG_.exit": ; preds = %2
  %10 = load ptr, ptr %.val, align 8, !tbaa !13
  %11 = tail call noundef nonnull align 8 dereferenceable(32) ptr @_ZNSt7__cxx1112basic_stringIcSt11char_traitsIcESaIcEE9_M_appendEPKcm(ptr noundef nonnull align 8 dereferenceable(32) %1, ptr noundef %10, i64 noundef %4)
  ret void
}